(lp0
(lp1
F0.0
aF0.0
aF0.0
aa(lp2
F-568.5858
aF-147.6393
aF1055.0
aa(lp3
F-618.7717
aF-95.5703
aF1055.0
aa(lp4
F-531.3527
aF-100.5489
aF1056.0
aa(lp5
F-575.4811
aF-55.7918
aF1054.0
aa(lp6
F-496.6461
aF-65.8647
aF1057.0
aa(lp7
F-545.9526
aF-26.2203
aF1060.0
aa.