(cnumpy.core.multiarray
scalar
p0
(cnumpy
dtype
p1
(S'f8'
p2
I0
I1
tp3
Rp4
(I3
S'<'
p5
NNNI-1
I-1
I0
tp6
bS'iVR\x19\xd2\xed\xc2\xbf'
p7
tp8
Rp9
g0
(g4
S'l\xdewXf\xe9\xd8\xbf'
p10
tp11
Rp12
g0
(g4
S'VCER\xe5c\xdf?'
p13
tp14
Rp15
tp16
.